; Function Attrs: nounwind uwtable
define ptr @l_Lean_KeyedDeclsAttribute_getEntries___rarg(ptr noundef readonly captures(none) %0, ptr noundef %1, ptr noundef %2) local_unnamed_addr #1 {
  %4 = getelementptr inbounds nuw i8, ptr %0, i64 24
  %5 = load ptr, ptr %4, align 8, !tbaa !9
  %6 = getelementptr inbounds nuw i8, ptr %5, i64 16
  %7 = load ptr, ptr %6, align 8, !tbaa !9
  %8 = getelementptr inbounds nuw i8, ptr %7, i64 8
  %9 = load ptr, ptr %8, align 8, !tbaa !9
  %10 = getelementptr inbounds nuw i8, ptr %9, i64 32
  %11 = load i8, ptr %10, align 1, !tbaa !17
  %12 = load ptr, ptr @l_Lean_KeyedDeclsAttribute_init___rarg___lambda__7___closed__1, align 8, !tbaa !9
  %13 = tail call ptr @l_Lean_ScopedEnvExtension_getState___rarg(ptr noundef %12, ptr noundef %5, ptr noundef %1, i8 noundef zeroext %11) #6
  %14 = getelementptr inbounds nuw i8, ptr %13, i64 16
  %15 = load ptr, ptr %14, align 8, !tbaa !9
  %16 = ptrtoint ptr %15 to i64
  %17 = and i64 %16, 1
  %.not = icmp eq i64 %17, 0
  br i1 %.not, label %18, label %lean_inc.exit43

18:                                               ; preds = %3
  %.val.i = load i32, ptr %15, align 4, !tbaa !4
  %19 = icmp sgt i32 %.val.i, 0
  br i1 %19, label %20, label %22, !prof !11

20:                                               ; preds = %18
  %21 = add nuw i32 %.val.i, 1
  store i32 %21, ptr %15, align 4, !tbaa !4
  br label %lean_inc.exit43

22:                                               ; preds = %18
  %.not.i52 = icmp eq i32 %.val.i, 0
  br i1 %.not.i52, label %lean_inc.exit43, label %23

23:                                               ; preds = %22
  tail call void @lean_inc_ref_cold(ptr noundef nonnull %15) #6
  br label %lean_inc.exit43

lean_inc.exit43:                                  ; preds = %23, %22, %20, %3
  %24 = tail call ptr @l_Lean_SMap_find_x3f___at_Lean_KeyedDeclsAttribute_getEntries___spec__1___rarg(ptr noundef %15, ptr noundef %2)
  %25 = getelementptr inbounds nuw i8, ptr %13, i64 32
  %26 = load ptr, ptr %25, align 8, !tbaa !9
  %27 = ptrtoint ptr %26 to i64
  %28 = and i64 %27, 1
  %.not64 = icmp eq i64 %28, 0
  br i1 %.not64, label %29, label %lean_inc.exit42

29:                                               ; preds = %lean_inc.exit43
  %.val.i53 = load i32, ptr %26, align 4, !tbaa !4
  %30 = icmp sgt i32 %.val.i53, 0
  br i1 %30, label %31, label %33, !prof !11

31:                                               ; preds = %29
  %32 = add nuw i32 %.val.i53, 1
  store i32 %32, ptr %26, align 4, !tbaa !4
  br label %lean_inc.exit42

33:                                               ; preds = %29
  %.not.i54 = icmp eq i32 %.val.i53, 0
  br i1 %.not.i54, label %lean_inc.exit42, label %34

34:                                               ; preds = %33
  tail call void @lean_inc_ref_cold(ptr noundef nonnull %26) #6
  br label %lean_inc.exit42

lean_inc.exit42:                                  ; preds = %34, %33, %31, %lean_inc.exit43
  %35 = ptrtoint ptr %13 to i64
  %36 = and i64 %35, 1
  %.not65 = icmp eq i64 %36, 0
  br i1 %.not65, label %37, label %lean_dec.exit40

37:                                               ; preds = %lean_inc.exit42
  %38 = load i32, ptr %13, align 4, !tbaa !4
  %39 = icmp sgt i32 %38, 1
  br i1 %39, label %40, label %42, !prof !11

40:                                               ; preds = %37
  %41 = add nsw i32 %38, -1
  store i32 %41, ptr %13, align 4, !tbaa !4
  br label %lean_dec.exit40

42:                                               ; preds = %37
  %.not.i = icmp eq i32 %38, 0
  br i1 %.not.i, label %lean_dec.exit40, label %43

43:                                               ; preds = %42
  tail call void @lean_dec_ref_cold(ptr noundef nonnull %13) #6
  br label %lean_dec.exit40

lean_dec.exit40:                                  ; preds = %43, %42, %40, %lean_inc.exit42
  %44 = tail call zeroext i8 @l_Lean_PersistentHashMap_Node_isEmpty___rarg(ptr noundef %26) #6
  %45 = ptrtoint ptr %24 to i64
  %46 = and i64 %45, 1
  %.not.i56 = icmp eq i64 %46, 0
  br i1 %.not.i56, label %50, label %47

47:                                               ; preds = %lean_dec.exit40
  %48 = lshr i64 %45, 1
  %49 = trunc i64 %48 to i32
  br label %lean_obj_tag.exit

50:                                               ; preds = %lean_dec.exit40
  %51 = getelementptr i8, ptr %24, i64 4
  %.val.i57 = load i32, ptr %51, align 4
  %52 = lshr i32 %.val.i57, 24
  br label %lean_obj_tag.exit

lean_obj_tag.exit:                                ; preds = %47, %50
  %.0.i = phi i32 [ %49, %47 ], [ %52, %50 ]
  %53 = icmp eq i32 %.0.i, 0
  %54 = icmp eq i8 %44, 0
  br i1 %53, label %55, label %66

55:                                               ; preds = %lean_obj_tag.exit
  br i1 %54, label %56, label %58

56:                                               ; preds = %55
  %57 = tail call ptr @l_List_filterTR_loop___at_Lean_KeyedDeclsAttribute_getEntries___spec__9___rarg(ptr noundef %26, ptr noundef nonnull inttoptr (i64 1 to ptr), ptr noundef nonnull inttoptr (i64 1 to ptr))
  br label %lean_dec.exit39

58:                                               ; preds = %55
  br i1 %.not64, label %59, label %lean_dec.exit39

59:                                               ; preds = %58
  %60 = load i32, ptr %26, align 4, !tbaa !4
  %61 = icmp sgt i32 %60, 1
  br i1 %61, label %62, label %64, !prof !11

62:                                               ; preds = %59
  %63 = add nsw i32 %60, -1
  store i32 %63, ptr %26, align 4, !tbaa !4
  br label %lean_dec.exit39

64:                                               ; preds = %59
  %.not.i44 = icmp eq i32 %60, 0
  br i1 %.not.i44, label %lean_dec.exit39, label %65

65:                                               ; preds = %64
  tail call void @lean_dec_ref_cold(ptr noundef nonnull %26) #6
  br label %lean_dec.exit39

66:                                               ; preds = %lean_obj_tag.exit
  br i1 %54, label %67, label %86

67:                                               ; preds = %66
  %68 = getelementptr inbounds nuw i8, ptr %24, i64 8
  %69 = load ptr, ptr %68, align 8, !tbaa !9
  %70 = ptrtoint ptr %69 to i64
  %71 = and i64 %70, 1
  %.not68 = icmp eq i64 %71, 0
  br i1 %.not68, label %72, label %lean_inc.exit41

72:                                               ; preds = %67
  %.val.i58 = load i32, ptr %69, align 4, !tbaa !4
  %73 = icmp sgt i32 %.val.i58, 0
  br i1 %73, label %74, label %76, !prof !11

74:                                               ; preds = %72
  %75 = add nuw i32 %.val.i58, 1
  store i32 %75, ptr %69, align 4, !tbaa !4
  br label %lean_inc.exit41

76:                                               ; preds = %72
  %.not.i59 = icmp eq i32 %.val.i58, 0
  br i1 %.not.i59, label %lean_inc.exit41, label %77

77:                                               ; preds = %76
  tail call void @lean_inc_ref_cold(ptr noundef nonnull %69) #6
  br label %lean_inc.exit41

lean_inc.exit41:                                  ; preds = %77, %76, %74, %67
  br i1 %.not.i56, label %78, label %lean_dec.exit38

78:                                               ; preds = %lean_inc.exit41
  %79 = load i32, ptr %24, align 4, !tbaa !4
  %80 = icmp sgt i32 %79, 1
  br i1 %80, label %81, label %83, !prof !11

81:                                               ; preds = %78
  %82 = add nsw i32 %79, -1
  store i32 %82, ptr %24, align 4, !tbaa !4
  br label %lean_dec.exit38

83:                                               ; preds = %78
  %.not.i46 = icmp eq i32 %79, 0
  br i1 %.not.i46, label %lean_dec.exit38, label %84

84:                                               ; preds = %83
  tail call void @lean_dec_ref_cold(ptr noundef nonnull %24) #6
  br label %lean_dec.exit38

lean_dec.exit38:                                  ; preds = %84, %83, %81, %lean_inc.exit41
  %85 = tail call ptr @l_List_filterTR_loop___at_Lean_KeyedDeclsAttribute_getEntries___spec__10___rarg(ptr noundef %26, ptr noundef %69, ptr noundef nonnull inttoptr (i64 1 to ptr))
  br label %lean_dec.exit39

86:                                               ; preds = %66
  br i1 %.not64, label %87, label %lean_dec.exit37

87:                                               ; preds = %86
  %88 = load i32, ptr %26, align 4, !tbaa !4
  %89 = icmp sgt i32 %88, 1
  br i1 %89, label %90, label %92, !prof !11

90:                                               ; preds = %87
  %91 = add nsw i32 %88, -1
  store i32 %91, ptr %26, align 4, !tbaa !4
  br label %lean_dec.exit37

92:                                               ; preds = %87
  %.not.i48 = icmp eq i32 %88, 0
  br i1 %.not.i48, label %lean_dec.exit37, label %93

93:                                               ; preds = %92
  tail call void @lean_dec_ref_cold(ptr noundef nonnull %26) #6
  br label %lean_dec.exit37

lean_dec.exit37:                                  ; preds = %93, %92, %90, %86
  %94 = getelementptr inbounds nuw i8, ptr %24, i64 8
  %95 = load ptr, ptr %94, align 8, !tbaa !9
  %96 = ptrtoint ptr %95 to i64
  %97 = and i64 %96, 1
  %.not66 = icmp eq i64 %97, 0
  br i1 %.not66, label %98, label %lean_inc.exit

98:                                               ; preds = %lean_dec.exit37
  %.val.i61 = load i32, ptr %95, align 4, !tbaa !4
  %99 = icmp sgt i32 %.val.i61, 0
  br i1 %99, label %100, label %102, !prof !11

100:                                              ; preds = %98
  %101 = add nuw i32 %.val.i61, 1
  store i32 %101, ptr %95, align 4, !tbaa !4
  br label %lean_inc.exit

102:                                              ; preds = %98
  %.not.i62 = icmp eq i32 %.val.i61, 0
  br i1 %.not.i62, label %lean_inc.exit, label %103

103:                                              ; preds = %102
  tail call void @lean_inc_ref_cold(ptr noundef nonnull %95) #6
  br label %lean_inc.exit

lean_inc.exit:                                    ; preds = %103, %102, %100, %lean_dec.exit37
  br i1 %.not.i56, label %104, label %lean_dec.exit39

104:                                              ; preds = %lean_inc.exit
  %105 = load i32, ptr %24, align 4, !tbaa !4
  %106 = icmp sgt i32 %105, 1
  br i1 %106, label %107, label %109, !prof !11

107:                                              ; preds = %104
  %108 = add nsw i32 %105, -1
  store i32 %108, ptr %24, align 4, !tbaa !4
  br label %lean_dec.exit39

109:                                              ; preds = %104
  %.not.i50 = icmp eq i32 %105, 0
  br i1 %.not.i50, label %lean_dec.exit39, label %110

110:                                              ; preds = %109
  tail call void @lean_dec_ref_cold(ptr noundef nonnull %24) #6
  br label %lean_dec.exit39

lean_dec.exit39:                                  ; preds = %lean_inc.exit, %107, %109, %110, %58, %62, %64, %65, %lean_dec.exit38, %56
  %.0 = phi ptr [ %57, %56 ], [ %85, %lean_dec.exit38 ], [ inttoptr (i64 1 to ptr), %65 ], [ inttoptr (i64 1 to ptr), %64 ], [ inttoptr (i64 1 to ptr), %62 ], [ inttoptr (i64 1 to ptr), %58 ], [ %95, %110 ], [ %95, %109 ], [ %95, %107 ], [ %95, %lean_inc.exit ]
  ret ptr %.0
}